SF:/home/memw/Documents/Development/flaky/actix_failwrap/src/helpers/status_codes.rs
FN:65,_RNCNvNtNtCse2DPM0D9GBn_14actix_failwrap7helpers12status_codes14closest_status0B7_
FN:52,_RNCNvNtNtCse2DPM0D9GBn_14actix_failwrap7helpers12status_codes14code_to_status0B7_
FN:59,_RNCNvNtNtCse2DPM0D9GBn_14actix_failwrap7helpers12status_codes19is_status_supported0B7_
FN:62,_RNvNtNtCse2DPM0D9GBn_14actix_failwrap7helpers12status_codes14closest_status
FN:49,_RNvNtNtCse2DPM0D9GBn_14actix_failwrap7helpers12status_codes14code_to_status
FN:56,_RNvNtNtCse2DPM0D9GBn_14actix_failwrap7helpers12status_codes19is_status_supported
FN:45,_RNvNtNtCse2DPM0D9GBn_14actix_failwrap7helpers12status_codes20allowed_status_pairs
FN:65,_RNCNvNtNtCs1KVIBsp6OTI_14actix_failwrap7helpers12status_codes14closest_status0B7_
FN:52,_RNCNvNtNtCs1KVIBsp6OTI_14actix_failwrap7helpers12status_codes14code_to_status0B7_
FN:59,_RNCNvNtNtCs1KVIBsp6OTI_14actix_failwrap7helpers12status_codes19is_status_supported0B7_
FN:62,_RNvNtNtCs1KVIBsp6OTI_14actix_failwrap7helpers12status_codes14closest_status
FN:49,_RNvNtNtCs1KVIBsp6OTI_14actix_failwrap7helpers12status_codes14code_to_status
FN:56,_RNvNtNtCs1KVIBsp6OTI_14actix_failwrap7helpers12status_codes19is_status_supported
FN:45,_RNvNtNtCs1KVIBsp6OTI_14actix_failwrap7helpers12status_codes20allowed_status_pairs
FNDA:0,_RNCNvNtNtCse2DPM0D9GBn_14actix_failwrap7helpers12status_codes14closest_status0B7_
FNDA:0,_RNCNvNtNtCse2DPM0D9GBn_14actix_failwrap7helpers12status_codes14code_to_status0B7_
FNDA:0,_RNCNvNtNtCse2DPM0D9GBn_14actix_failwrap7helpers12status_codes19is_status_supported0B7_
FNDA:0,_RNvNtNtCse2DPM0D9GBn_14actix_failwrap7helpers12status_codes14closest_status
FNDA:0,_RNvNtNtCse2DPM0D9GBn_14actix_failwrap7helpers12status_codes14code_to_status
FNDA:0,_RNvNtNtCse2DPM0D9GBn_14actix_failwrap7helpers12status_codes19is_status_supported
FNDA:0,_RNvNtNtCse2DPM0D9GBn_14actix_failwrap7helpers12status_codes20allowed_status_pairs
FNDA:0,_RNCNvNtNtCs1KVIBsp6OTI_14actix_failwrap7helpers12status_codes14closest_status0B7_
FNDA:6,_RNCNvNtNtCs1KVIBsp6OTI_14actix_failwrap7helpers12status_codes14code_to_status0B7_
FNDA:0,_RNCNvNtNtCs1KVIBsp6OTI_14actix_failwrap7helpers12status_codes19is_status_supported0B7_
FNDA:0,_RNvNtNtCs1KVIBsp6OTI_14actix_failwrap7helpers12status_codes14closest_status
FNDA:2,_RNvNtNtCs1KVIBsp6OTI_14actix_failwrap7helpers12status_codes14code_to_status
FNDA:0,_RNvNtNtCs1KVIBsp6OTI_14actix_failwrap7helpers12status_codes19is_status_supported
FNDA:0,_RNvNtNtCs1KVIBsp6OTI_14actix_failwrap7helpers12status_codes20allowed_status_pairs
FNF:7
FNH:2
DA:45,0
DA:46,0
DA:47,0
DA:49,2
DA:50,2
DA:51,2
DA:52,6
DA:53,2
DA:54,2
DA:56,0
DA:57,0
DA:58,0
DA:59,0
DA:60,0
DA:62,0
DA:63,0
DA:64,0
DA:65,0
DA:66,0
DA:67,0
BRF:0
BRH:0
LF:23
LH:7
end_of_record
SF:/home/memw/Documents/Development/flaky/actix_failwrap/src/helpers/unique_attr.rs
FN:5,_RINvNtNtCse2DPM0D9GBn_14actix_failwrap7helpers11unique_attr15get_single_attrpEB6_
FN:11,_RNCINvNtNtCse2DPM0D9GBn_14actix_failwrap7helpers11unique_attr15get_single_attrpE0B8_
FN:27,_RNCINvNtNtCse2DPM0D9GBn_14actix_failwrap7helpers11unique_attr15get_single_attrpEs_0B8_
FN:28,_RNCNCINvNtNtCse2DPM0D9GBn_14actix_failwrap7helpers11unique_attr15get_single_attrpEs_00Ba_
FN:5,_RINvNtNtCs1KVIBsp6OTI_14actix_failwrap7helpers11unique_attr15get_single_attrINtNtCs8Ty2CzGA6U3_5alloc3vec3VecNtNtCsl6byvPIGh1l_3syn4attr9AttributeEEB6_
FN:11,_RNCINvNtNtCs1KVIBsp6OTI_14actix_failwrap7helpers11unique_attr15get_single_attrINtNtCs8Ty2CzGA6U3_5alloc3vec3VecNtNtCsl6byvPIGh1l_3syn4attr9AttributeEE0B8_
FN:27,_RNCINvNtNtCs1KVIBsp6OTI_14actix_failwrap7helpers11unique_attr15get_single_attrINtNtCs8Ty2CzGA6U3_5alloc3vec3VecNtNtCsl6byvPIGh1l_3syn4attr9AttributeEEs_0B8_
FN:28,_RNCNCINvNtNtCs1KVIBsp6OTI_14actix_failwrap7helpers11unique_attr15get_single_attrINtNtCs8Ty2CzGA6U3_5alloc3vec3VecNtNtCsl6byvPIGh1l_3syn4attr9AttributeEEs_00Ba_
FNDA:0,_RINvNtNtCse2DPM0D9GBn_14actix_failwrap7helpers11unique_attr15get_single_attrpEB6_
FNDA:0,_RNCINvNtNtCse2DPM0D9GBn_14actix_failwrap7helpers11unique_attr15get_single_attrpE0B8_
FNDA:0,_RNCINvNtNtCse2DPM0D9GBn_14actix_failwrap7helpers11unique_attr15get_single_attrpEs_0B8_
FNDA:0,_RNCNCINvNtNtCse2DPM0D9GBn_14actix_failwrap7helpers11unique_attr15get_single_attrpEs_00Ba_
FNDA:16,_RINvNtNtCs1KVIBsp6OTI_14actix_failwrap7helpers11unique_attr15get_single_attrINtNtCs8Ty2CzGA6U3_5alloc3vec3VecNtNtCsl6byvPIGh1l_3syn4attr9AttributeEEB6_
FNDA:13,_RNCINvNtNtCs1KVIBsp6OTI_14actix_failwrap7helpers11unique_attr15get_single_attrINtNtCs8Ty2CzGA6U3_5alloc3vec3VecNtNtCsl6byvPIGh1l_3syn4attr9AttributeEE0B8_
FNDA:0,_RNCINvNtNtCs1KVIBsp6OTI_14actix_failwrap7helpers11unique_attr15get_single_attrINtNtCs8Ty2CzGA6U3_5alloc3vec3VecNtNtCsl6byvPIGh1l_3syn4attr9AttributeEEs_0B8_
FNDA:0,_RNCNCINvNtNtCs1KVIBsp6OTI_14actix_failwrap7helpers11unique_attr15get_single_attrINtNtCs8Ty2CzGA6U3_5alloc3vec3VecNtNtCsl6byvPIGh1l_3syn4attr9AttributeEEs_00Ba_
FNF:4
FNH:2
DA:5,16
DA:6,16
DA:7,16
DA:8,16
DA:9,16
DA:10,16
DA:11,16
DA:12,13
DA:13,13
DA:14,13
DA:15,16
DA:17,16
DA:18,16
DA:19,16
DA:20,16
DA:22,0
DA:23,0
DA:25,0
DA:26,0
DA:27,0
DA:28,0
DA:29,0
DA:30,0
DA:31,0
DA:32,0
DA:33,0
DA:35,0
DA:38,16
BRF:0
BRH:0
LF:31
LH:17
end_of_record
SF:/home/memw/Documents/Development/flaky/actix_failwrap/src/lib.rs
FN:22,_RNvCse2DPM0D9GBn_14actix_failwrap11proof_route
FN:17,_RNvCse2DPM0D9GBn_14actix_failwrap14error_response
FN:22,_RNvCs1KVIBsp6OTI_14actix_failwrap11proof_route
FN:17,_RNvCs1KVIBsp6OTI_14actix_failwrap14error_response
FNDA:0,_RNvCse2DPM0D9GBn_14actix_failwrap11proof_route
FNDA:0,_RNvCse2DPM0D9GBn_14actix_failwrap14error_response
FNDA:4,_RNvCs1KVIBsp6OTI_14actix_failwrap11proof_route
FNDA:4,_RNvCs1KVIBsp6OTI_14actix_failwrap14error_response
FNF:2
FNH:2
DA:17,4
DA:18,4
DA:19,4
DA:22,4
DA:23,4
DA:24,4
DA:25,4
DA:27,4
DA:28,4
BRF:0
BRH:0
LF:9
LH:9
end_of_record
SF:/home/memw/Documents/Development/flaky/actix_failwrap/src/macro_input/error_response.rs
FN:151,_RNCNCNvXs2_NtNtCse2DPM0D9GBn_14actix_failwrap11macro_input14error_responseNtB9_10StatusCodeNtNtCsl6byvPIGh1l_3syn5parse5Parse5parses_00Bd_
FN:89,_RNCNCNvXs_NtNtCse2DPM0D9GBn_14actix_failwrap11macro_input14error_responseNtB8_13ErrorResponseNtNtCsl6byvPIGh1l_3syn5parse5Parse5parses1_00Bc_
FN:91,_RNCNCNvXs_NtNtCse2DPM0D9GBn_14actix_failwrap11macro_input14error_responseNtB8_13ErrorResponseNtNtCsl6byvPIGh1l_3syn5parse5Parse5parses1_0s_0Bc_
FN:137,_RNCNvXs2_NtNtCse2DPM0D9GBn_14actix_failwrap11macro_input14error_responseNtB7_10StatusCodeNtNtCsl6byvPIGh1l_3syn5parse5Parse5parse0Bb_
FN:141,_RNCNvXs2_NtNtCse2DPM0D9GBn_14actix_failwrap11macro_input14error_responseNtB7_10StatusCodeNtNtCsl6byvPIGh1l_3syn5parse5Parse5parses_0Bb_
FN:69,_RNCNvXs_NtNtCse2DPM0D9GBn_14actix_failwrap11macro_input14error_responseNtB6_13ErrorResponseNtNtCsl6byvPIGh1l_3syn5parse5Parse5parse0Ba_
FN:75,_RNCNvXs_NtNtCse2DPM0D9GBn_14actix_failwrap11macro_input14error_responseNtB6_13ErrorResponseNtNtCsl6byvPIGh1l_3syn5parse5Parse5parses0_0Ba_
FN:81,_RNCNvXs_NtNtCse2DPM0D9GBn_14actix_failwrap11macro_input14error_responseNtB6_13ErrorResponseNtNtCsl6byvPIGh1l_3syn5parse5Parse5parses1_0Ba_
FN:71,_RNCNvXs_NtNtCse2DPM0D9GBn_14actix_failwrap11macro_input14error_responseNtB6_13ErrorResponseNtNtCsl6byvPIGh1l_3syn5parse5Parse5parses_0Ba_
FN:46,_RNvMNtNtCse2DPM0D9GBn_14actix_failwrap11macro_input14error_responseNtB2_13ErrorResponse18transform_response
FN:41,_RNvMNtNtCse2DPM0D9GBn_14actix_failwrap11macro_input14error_responseNtB2_13ErrorResponse19default_status_code
FN:52,_RNvMNtNtCse2DPM0D9GBn_14actix_failwrap11macro_input14error_responseNtB2_13ErrorResponse8variants
FN:36,_RNvMNtNtCse2DPM0D9GBn_14actix_failwrap11macro_input14error_responseNtB2_13ErrorResponse9enum_name
FN:115,_RNvMs0_NtNtCse2DPM0D9GBn_14actix_failwrap11macro_input14error_responseNtB5_20ErrorResponseVariant11status_code
FN:121,_RNvMs0_NtNtCse2DPM0D9GBn_14actix_failwrap11macro_input14error_responseNtB5_20ErrorResponseVariant7variant
FN:127,_RNvMs1_NtNtCse2DPM0D9GBn_14actix_failwrap11macro_input14error_responseNtB5_10StatusCode10into_inner
FN:133,_RNvXs2_NtNtCse2DPM0D9GBn_14actix_failwrap11macro_input14error_responseNtB5_10StatusCodeNtNtCsl6byvPIGh1l_3syn5parse5Parse5parse
FN:58,_RNvXs_NtNtCse2DPM0D9GBn_14actix_failwrap11macro_input14error_responseNtB4_13ErrorResponseNtNtCsl6byvPIGh1l_3syn5parse5Parse5parse
FN:52,_RNvMNtNtCs1KVIBsp6OTI_14actix_failwrap11macro_input14error_responseNtB2_13ErrorResponse8variants
FN:36,_RNvMNtNtCs1KVIBsp6OTI_14actix_failwrap11macro_input14error_responseNtB2_13ErrorResponse9enum_name
FN:121,_RNvMs0_NtNtCs1KVIBsp6OTI_14actix_failwrap11macro_input14error_responseNtB5_20ErrorResponseVariant7variant
FN:46,_RNvMNtNtCs1KVIBsp6OTI_14actix_failwrap11macro_input14error_responseNtB2_13ErrorResponse18transform_response
FN:41,_RNvMNtNtCs1KVIBsp6OTI_14actix_failwrap11macro_input14error_responseNtB2_13ErrorResponse19default_status_code
FN:115,_RNvMs0_NtNtCs1KVIBsp6OTI_14actix_failwrap11macro_input14error_responseNtB5_20ErrorResponseVariant11status_code
FN:151,_RNCNCNvXs2_NtNtCs1KVIBsp6OTI_14actix_failwrap11macro_input14error_responseNtB9_10StatusCodeNtNtCsl6byvPIGh1l_3syn5parse5Parse5parses_00Bd_
FN:89,_RNCNCNvXs_NtNtCs1KVIBsp6OTI_14actix_failwrap11macro_input14error_responseNtB8_13ErrorResponseNtNtCsl6byvPIGh1l_3syn5parse5Parse5parses1_00Bc_
FN:91,_RNCNCNvXs_NtNtCs1KVIBsp6OTI_14actix_failwrap11macro_input14error_responseNtB8_13ErrorResponseNtNtCsl6byvPIGh1l_3syn5parse5Parse5parses1_0s_0Bc_
FN:137,_RNCNvXs2_NtNtCs1KVIBsp6OTI_14actix_failwrap11macro_input14error_responseNtB7_10StatusCodeNtNtCsl6byvPIGh1l_3syn5parse5Parse5parse0Bb_
FN:141,_RNCNvXs2_NtNtCs1KVIBsp6OTI_14actix_failwrap11macro_input14error_responseNtB7_10StatusCodeNtNtCsl6byvPIGh1l_3syn5parse5Parse5parses_0Bb_
FN:69,_RNCNvXs_NtNtCs1KVIBsp6OTI_14actix_failwrap11macro_input14error_responseNtB6_13ErrorResponseNtNtCsl6byvPIGh1l_3syn5parse5Parse5parse0Ba_
FN:75,_RNCNvXs_NtNtCs1KVIBsp6OTI_14actix_failwrap11macro_input14error_responseNtB6_13ErrorResponseNtNtCsl6byvPIGh1l_3syn5parse5Parse5parses0_0Ba_
FN:81,_RNCNvXs_NtNtCs1KVIBsp6OTI_14actix_failwrap11macro_input14error_responseNtB6_13ErrorResponseNtNtCsl6byvPIGh1l_3syn5parse5Parse5parses1_0Ba_
FN:71,_RNCNvXs_NtNtCs1KVIBsp6OTI_14actix_failwrap11macro_input14error_responseNtB6_13ErrorResponseNtNtCsl6byvPIGh1l_3syn5parse5Parse5parses_0Ba_
FN:127,_RNvMs1_NtNtCs1KVIBsp6OTI_14actix_failwrap11macro_input14error_responseNtB5_10StatusCode10into_inner
FN:133,_RNvXs2_NtNtCs1KVIBsp6OTI_14actix_failwrap11macro_input14error_responseNtB5_10StatusCodeNtNtCsl6byvPIGh1l_3syn5parse5Parse5parse
FN:58,_RNvXs_NtNtCs1KVIBsp6OTI_14actix_failwrap11macro_input14error_responseNtB4_13ErrorResponseNtNtCsl6byvPIGh1l_3syn5parse5Parse5parse
FNDA:0,_RNCNCNvXs2_NtNtCse2DPM0D9GBn_14actix_failwrap11macro_input14error_responseNtB9_10StatusCodeNtNtCsl6byvPIGh1l_3syn5parse5Parse5parses_00Bd_
FNDA:0,_RNCNCNvXs_NtNtCse2DPM0D9GBn_14actix_failwrap11macro_input14error_responseNtB8_13ErrorResponseNtNtCsl6byvPIGh1l_3syn5parse5Parse5parses1_00Bc_
FNDA:0,_RNCNCNvXs_NtNtCse2DPM0D9GBn_14actix_failwrap11macro_input14error_responseNtB8_13ErrorResponseNtNtCsl6byvPIGh1l_3syn5parse5Parse5parses1_0s_0Bc_
FNDA:0,_RNCNvXs2_NtNtCse2DPM0D9GBn_14actix_failwrap11macro_input14error_responseNtB7_10StatusCodeNtNtCsl6byvPIGh1l_3syn5parse5Parse5parse0Bb_
FNDA:0,_RNCNvXs2_NtNtCse2DPM0D9GBn_14actix_failwrap11macro_input14error_responseNtB7_10StatusCodeNtNtCsl6byvPIGh1l_3syn5parse5Parse5parses_0Bb_
FNDA:0,_RNCNvXs_NtNtCse2DPM0D9GBn_14actix_failwrap11macro_input14error_responseNtB6_13ErrorResponseNtNtCsl6byvPIGh1l_3syn5parse5Parse5parse0Ba_
FNDA:0,_RNCNvXs_NtNtCse2DPM0D9GBn_14actix_failwrap11macro_input14error_responseNtB6_13ErrorResponseNtNtCsl6byvPIGh1l_3syn5parse5Parse5parses0_0Ba_
FNDA:0,_RNCNvXs_NtNtCse2DPM0D9GBn_14actix_failwrap11macro_input14error_responseNtB6_13ErrorResponseNtNtCsl6byvPIGh1l_3syn5parse5Parse5parses1_0Ba_
FNDA:0,_RNCNvXs_NtNtCse2DPM0D9GBn_14actix_failwrap11macro_input14error_responseNtB6_13ErrorResponseNtNtCsl6byvPIGh1l_3syn5parse5Parse5parses_0Ba_
FNDA:0,_RNvMNtNtCse2DPM0D9GBn_14actix_failwrap11macro_input14error_responseNtB2_13ErrorResponse18transform_response
FNDA:0,_RNvMNtNtCse2DPM0D9GBn_14actix_failwrap11macro_input14error_responseNtB2_13ErrorResponse19default_status_code
FNDA:0,_RNvMNtNtCse2DPM0D9GBn_14actix_failwrap11macro_input14error_responseNtB2_13ErrorResponse8variants
FNDA:0,_RNvMNtNtCse2DPM0D9GBn_14actix_failwrap11macro_input14error_responseNtB2_13ErrorResponse9enum_name
FNDA:0,_RNvMs0_NtNtCse2DPM0D9GBn_14actix_failwrap11macro_input14error_responseNtB5_20ErrorResponseVariant11status_code
FNDA:0,_RNvMs0_NtNtCse2DPM0D9GBn_14actix_failwrap11macro_input14error_responseNtB5_20ErrorResponseVariant7variant
FNDA:0,_RNvMs1_NtNtCse2DPM0D9GBn_14actix_failwrap11macro_input14error_responseNtB5_10StatusCode10into_inner
FNDA:0,_RNvXs2_NtNtCse2DPM0D9GBn_14actix_failwrap11macro_input14error_responseNtB5_10StatusCodeNtNtCsl6byvPIGh1l_3syn5parse5Parse5parse
FNDA:0,_RNvXs_NtNtCse2DPM0D9GBn_14actix_failwrap11macro_input14error_responseNtB4_13ErrorResponseNtNtCsl6byvPIGh1l_3syn5parse5Parse5parse
FNDA:4,_RNvMNtNtCs1KVIBsp6OTI_14actix_failwrap11macro_input14error_responseNtB2_13ErrorResponse8variants
FNDA:4,_RNvMNtNtCs1KVIBsp6OTI_14actix_failwrap11macro_input14error_responseNtB2_13ErrorResponse9enum_name
FNDA:16,_RNvMs0_NtNtCs1KVIBsp6OTI_14actix_failwrap11macro_input14error_responseNtB5_20ErrorResponseVariant7variant
FNDA:8,_RNvMNtNtCs1KVIBsp6OTI_14actix_failwrap11macro_input14error_responseNtB2_13ErrorResponse18transform_response
FNDA:8,_RNvMNtNtCs1KVIBsp6OTI_14actix_failwrap11macro_input14error_responseNtB2_13ErrorResponse19default_status_code
FNDA:8,_RNvMs0_NtNtCs1KVIBsp6OTI_14actix_failwrap11macro_input14error_responseNtB5_20ErrorResponseVariant11status_code
FNDA:0,_RNCNCNvXs2_NtNtCs1KVIBsp6OTI_14actix_failwrap11macro_input14error_responseNtB9_10StatusCodeNtNtCsl6byvPIGh1l_3syn5parse5Parse5parses_00Bd_
FNDA:1,_RNCNCNvXs_NtNtCs1KVIBsp6OTI_14actix_failwrap11macro_input14error_responseNtB8_13ErrorResponseNtNtCsl6byvPIGh1l_3syn5parse5Parse5parses1_00Bc_
FNDA:1,_RNCNCNvXs_NtNtCs1KVIBsp6OTI_14actix_failwrap11macro_input14error_responseNtB8_13ErrorResponseNtNtCsl6byvPIGh1l_3syn5parse5Parse5parses1_0s_0Bc_
FNDA:0,_RNCNvXs2_NtNtCs1KVIBsp6OTI_14actix_failwrap11macro_input14error_responseNtB7_10StatusCodeNtNtCsl6byvPIGh1l_3syn5parse5Parse5parse0Bb_
FNDA:0,_RNCNvXs2_NtNtCs1KVIBsp6OTI_14actix_failwrap11macro_input14error_responseNtB7_10StatusCodeNtNtCsl6byvPIGh1l_3syn5parse5Parse5parses_0Bb_
FNDA:1,_RNCNvXs_NtNtCs1KVIBsp6OTI_14actix_failwrap11macro_input14error_responseNtB6_13ErrorResponseNtNtCsl6byvPIGh1l_3syn5parse5Parse5parse0Ba_
FNDA:1,_RNCNvXs_NtNtCs1KVIBsp6OTI_14actix_failwrap11macro_input14error_responseNtB6_13ErrorResponseNtNtCsl6byvPIGh1l_3syn5parse5Parse5parses0_0Ba_
FNDA:8,_RNCNvXs_NtNtCs1KVIBsp6OTI_14actix_failwrap11macro_input14error_responseNtB6_13ErrorResponseNtNtCsl6byvPIGh1l_3syn5parse5Parse5parses1_0Ba_
FNDA:1,_RNCNvXs_NtNtCs1KVIBsp6OTI_14actix_failwrap11macro_input14error_responseNtB6_13ErrorResponseNtNtCsl6byvPIGh1l_3syn5parse5Parse5parses_0Ba_
FNDA:2,_RNvMs1_NtNtCs1KVIBsp6OTI_14actix_failwrap11macro_input14error_responseNtB5_10StatusCode10into_inner
FNDA:2,_RNvXs2_NtNtCs1KVIBsp6OTI_14actix_failwrap11macro_input14error_responseNtB5_10StatusCodeNtNtCsl6byvPIGh1l_3syn5parse5Parse5parse
FNDA:4,_RNvXs_NtNtCs1KVIBsp6OTI_14actix_failwrap11macro_input14error_responseNtB4_13ErrorResponseNtNtCsl6byvPIGh1l_3syn5parse5Parse5parse
FNF:18
FNH:15
DA:36,4
DA:37,4
DA:38,4
DA:41,8
DA:42,8
DA:43,8
DA:46,8
DA:47,8
DA:48,8
DA:49,8
DA:52,4
DA:53,4
DA:54,4
DA:58,4
DA:59,4
DA:61,4
DA:63,4
DA:64,4
DA:65,4
DA:66,4
DA:67,4
DA:68,0
DA:69,4
DA:70,4
DA:71,4
DA:72,4
DA:74,4
DA:75,4
DA:76,4
DA:78,4
DA:79,4
DA:80,4
DA:81,8
DA:83,8
DA:84,8
DA:85,8
DA:86,8
DA:87,8
DA:88,0
DA:89,8
DA:90,8
DA:91,8
DA:92,8
DA:94,8
DA:95,4
DA:97,4
DA:98,0
DA:99,0
DA:100,0
DA:101,0
DA:102,4
DA:104,4
DA:105,4
DA:106,4
DA:107,4
DA:108,4
DA:109,4
DA:110,4
DA:115,8
DA:116,8
DA:117,8
DA:118,8
DA:121,16
DA:122,16
DA:123,16
DA:127,2
DA:128,2
DA:129,2
DA:133,2
DA:134,2
DA:135,2
DA:136,2
DA:137,2
DA:138,0
DA:139,0
DA:141,2
DA:142,0
DA:143,0
DA:144,0
DA:145,0
DA:149,0
DA:150,0
DA:151,0
DA:152,0
DA:155,0
DA:157,2
DA:158,0
DA:160,0
DA:161,0
DA:162,0
DA:163,0
DA:164,0
DA:165,0
DA:166,0
DA:167,0
DA:171,0
DA:172,0
DA:173,0
DA:174,0
DA:179,0
DA:181,0
DA:182,0
DA:183,0
DA:184,0
DA:185,2
BRF:0
BRH:0
LF:116
LH:76
end_of_record
SF:/home/memw/Documents/Development/flaky/actix_failwrap/src/macro_input/proof_route.rs
FN:121,_RNCNCNvXs1_NtNtCse2DPM0D9GBn_14actix_failwrap11macro_input11proof_routeNtB9_14ProofRouteBodyNtNtCsl6byvPIGh1l_3syn5parse5Parse5parse00Bd_
FN:271,_RNCNCNvXs1_NtNtCse2DPM0D9GBn_14actix_failwrap11macro_input11proof_routeNtB9_14ProofRouteBodyNtNtCsl6byvPIGh1l_3syn5parse5Parse5parses1_00Bd_
FN:278,_RNCNCNvXs1_NtNtCse2DPM0D9GBn_14actix_failwrap11macro_input11proof_routeNtB9_14ProofRouteBodyNtNtCsl6byvPIGh1l_3syn5parse5Parse5parses1_0s0_0Bd_
FN:276,_RNCNCNvXs1_NtNtCse2DPM0D9GBn_14actix_failwrap11macro_input11proof_routeNtB9_14ProofRouteBodyNtNtCsl6byvPIGh1l_3syn5parse5Parse5parses1_0s_0Bd_
FN:118,_RNCNvXs1_NtNtCse2DPM0D9GBn_14actix_failwrap11macro_input11proof_routeNtB7_14ProofRouteBodyNtNtCsl6byvPIGh1l_3syn5parse5Parse5parse0Bb_
FN:262,_RNCNvXs1_NtNtCse2DPM0D9GBn_14actix_failwrap11macro_input11proof_routeNtB7_14ProofRouteBodyNtNtCsl6byvPIGh1l_3syn5parse5Parse5parses0_0Bb_
FN:266,_RNCNvXs1_NtNtCse2DPM0D9GBn_14actix_failwrap11macro_input11proof_routeNtB7_14ProofRouteBodyNtNtCsl6byvPIGh1l_3syn5parse5Parse5parses1_0Bb_
FN:297,_RNCNvXs1_NtNtCse2DPM0D9GBn_14actix_failwrap11macro_input11proof_routeNtB7_14ProofRouteBodyNtNtCsl6byvPIGh1l_3syn5parse5Parse5parses2_0Bb_
FN:168,_RNCNvXs1_NtNtCse2DPM0D9GBn_14actix_failwrap11macro_input11proof_routeNtB7_14ProofRouteBodyNtNtCsl6byvPIGh1l_3syn5parse5Parse5parses_0Bb_
FN:56,_RNCNvXs_NtNtCse2DPM0D9GBn_14actix_failwrap11macro_input11proof_routeNtB6_14ProofRouteMetaNtNtCsl6byvPIGh1l_3syn5parse5Parse5parse0Ba_
FN:69,_RNCNvXs_NtNtCse2DPM0D9GBn_14actix_failwrap11macro_input11proof_routeNtB6_14ProofRouteMetaNtNtCsl6byvPIGh1l_3syn5parse5Parse5parses_0Ba_
FN:44,_RNvMNtNtCse2DPM0D9GBn_14actix_failwrap11macro_input11proof_routeNtB2_14ProofRouteMeta4path
FN:39,_RNvMNtNtCse2DPM0D9GBn_14actix_failwrap11macro_input11proof_routeNtB2_14ProofRouteMeta6method
FN:91,_RNvMs0_NtNtCse2DPM0D9GBn_14actix_failwrap11macro_input11proof_routeNtB5_14ProofRouteBody10parameters
FN:96,_RNvMs0_NtNtCse2DPM0D9GBn_14actix_failwrap11macro_input11proof_routeNtB5_14ProofRouteBody12return_error
FN:86,_RNvMs0_NtNtCse2DPM0D9GBn_14actix_failwrap11macro_input11proof_routeNtB5_14ProofRouteBody4name
FN:101,_RNvMs0_NtNtCse2DPM0D9GBn_14actix_failwrap11macro_input11proof_routeNtB5_14ProofRouteBody8function
FN:311,_RNvMs2_NtNtCse2DPM0D9GBn_14actix_failwrap11macro_input11proof_routeNtB5_19ProofRouteParameter14error_override
FN:317,_RNvMs2_NtNtCse2DPM0D9GBn_14actix_failwrap11macro_input11proof_routeNtB5_19ProofRouteParameter2ty
FN:107,_RNvXs1_NtNtCse2DPM0D9GBn_14actix_failwrap11macro_input11proof_routeNtB5_14ProofRouteBodyNtNtCsl6byvPIGh1l_3syn5parse5Parse5parse
FN:50,_RNvXs_NtNtCse2DPM0D9GBn_14actix_failwrap11macro_input11proof_routeNtB4_14ProofRouteMetaNtNtCsl6byvPIGh1l_3syn5parse5Parse5parse
FN:121,_RNCNCNvXs1_NtNtCs1KVIBsp6OTI_14actix_failwrap11macro_input11proof_routeNtB9_14ProofRouteBodyNtNtCsl6byvPIGh1l_3syn5parse5Parse5parse00Bd_
FN:271,_RNCNCNvXs1_NtNtCs1KVIBsp6OTI_14actix_failwrap11macro_input11proof_routeNtB9_14ProofRouteBodyNtNtCsl6byvPIGh1l_3syn5parse5Parse5parses1_00Bd_
FN:278,_RNCNCNvXs1_NtNtCs1KVIBsp6OTI_14actix_failwrap11macro_input11proof_routeNtB9_14ProofRouteBodyNtNtCsl6byvPIGh1l_3syn5parse5Parse5parses1_0s0_0Bd_
FN:276,_RNCNCNvXs1_NtNtCs1KVIBsp6OTI_14actix_failwrap11macro_input11proof_routeNtB9_14ProofRouteBodyNtNtCsl6byvPIGh1l_3syn5parse5Parse5parses1_0s_0Bd_
FN:118,_RNCNvXs1_NtNtCs1KVIBsp6OTI_14actix_failwrap11macro_input11proof_routeNtB7_14ProofRouteBodyNtNtCsl6byvPIGh1l_3syn5parse5Parse5parse0Bb_
FN:262,_RNCNvXs1_NtNtCs1KVIBsp6OTI_14actix_failwrap11macro_input11proof_routeNtB7_14ProofRouteBodyNtNtCsl6byvPIGh1l_3syn5parse5Parse5parses0_0Bb_
FN:266,_RNCNvXs1_NtNtCs1KVIBsp6OTI_14actix_failwrap11macro_input11proof_routeNtB7_14ProofRouteBodyNtNtCsl6byvPIGh1l_3syn5parse5Parse5parses1_0Bb_
FN:297,_RNCNvXs1_NtNtCs1KVIBsp6OTI_14actix_failwrap11macro_input11proof_routeNtB7_14ProofRouteBodyNtNtCsl6byvPIGh1l_3syn5parse5Parse5parses2_0Bb_
FN:168,_RNCNvXs1_NtNtCs1KVIBsp6OTI_14actix_failwrap11macro_input11proof_routeNtB7_14ProofRouteBodyNtNtCsl6byvPIGh1l_3syn5parse5Parse5parses_0Bb_
FN:56,_RNCNvXs_NtNtCs1KVIBsp6OTI_14actix_failwrap11macro_input11proof_routeNtB6_14ProofRouteMetaNtNtCsl6byvPIGh1l_3syn5parse5Parse5parse0Ba_
FN:69,_RNCNvXs_NtNtCs1KVIBsp6OTI_14actix_failwrap11macro_input11proof_routeNtB6_14ProofRouteMetaNtNtCsl6byvPIGh1l_3syn5parse5Parse5parses_0Ba_
FN:44,_RNvMNtNtCs1KVIBsp6OTI_14actix_failwrap11macro_input11proof_routeNtB2_14ProofRouteMeta4path
FN:39,_RNvMNtNtCs1KVIBsp6OTI_14actix_failwrap11macro_input11proof_routeNtB2_14ProofRouteMeta6method
FN:91,_RNvMs0_NtNtCs1KVIBsp6OTI_14actix_failwrap11macro_input11proof_routeNtB5_14ProofRouteBody10parameters
FN:96,_RNvMs0_NtNtCs1KVIBsp6OTI_14actix_failwrap11macro_input11proof_routeNtB5_14ProofRouteBody12return_error
FN:86,_RNvMs0_NtNtCs1KVIBsp6OTI_14actix_failwrap11macro_input11proof_routeNtB5_14ProofRouteBody4name
FN:101,_RNvMs0_NtNtCs1KVIBsp6OTI_14actix_failwrap11macro_input11proof_routeNtB5_14ProofRouteBody8function
FN:311,_RNvMs2_NtNtCs1KVIBsp6OTI_14actix_failwrap11macro_input11proof_routeNtB5_19ProofRouteParameter14error_override
FN:317,_RNvMs2_NtNtCs1KVIBsp6OTI_14actix_failwrap11macro_input11proof_routeNtB5_19ProofRouteParameter2ty
FN:107,_RNvXs1_NtNtCs1KVIBsp6OTI_14actix_failwrap11macro_input11proof_routeNtB5_14ProofRouteBodyNtNtCsl6byvPIGh1l_3syn5parse5Parse5parse
FN:50,_RNvXs_NtNtCs1KVIBsp6OTI_14actix_failwrap11macro_input11proof_routeNtB4_14ProofRouteMetaNtNtCsl6byvPIGh1l_3syn5parse5Parse5parse
FNDA:0,_RNCNCNvXs1_NtNtCse2DPM0D9GBn_14actix_failwrap11macro_input11proof_routeNtB9_14ProofRouteBodyNtNtCsl6byvPIGh1l_3syn5parse5Parse5parse00Bd_
FNDA:0,_RNCNCNvXs1_NtNtCse2DPM0D9GBn_14actix_failwrap11macro_input11proof_routeNtB9_14ProofRouteBodyNtNtCsl6byvPIGh1l_3syn5parse5Parse5parses1_00Bd_
FNDA:0,_RNCNCNvXs1_NtNtCse2DPM0D9GBn_14actix_failwrap11macro_input11proof_routeNtB9_14ProofRouteBodyNtNtCsl6byvPIGh1l_3syn5parse5Parse5parses1_0s0_0Bd_
FNDA:0,_RNCNCNvXs1_NtNtCse2DPM0D9GBn_14actix_failwrap11macro_input11proof_routeNtB9_14ProofRouteBodyNtNtCsl6byvPIGh1l_3syn5parse5Parse5parses1_0s_0Bd_
FNDA:0,_RNCNvXs1_NtNtCse2DPM0D9GBn_14actix_failwrap11macro_input11proof_routeNtB7_14ProofRouteBodyNtNtCsl6byvPIGh1l_3syn5parse5Parse5parse0Bb_
FNDA:0,_RNCNvXs1_NtNtCse2DPM0D9GBn_14actix_failwrap11macro_input11proof_routeNtB7_14ProofRouteBodyNtNtCsl6byvPIGh1l_3syn5parse5Parse5parses0_0Bb_
FNDA:0,_RNCNvXs1_NtNtCse2DPM0D9GBn_14actix_failwrap11macro_input11proof_routeNtB7_14ProofRouteBodyNtNtCsl6byvPIGh1l_3syn5parse5Parse5parses1_0Bb_
FNDA:0,_RNCNvXs1_NtNtCse2DPM0D9GBn_14actix_failwrap11macro_input11proof_routeNtB7_14ProofRouteBodyNtNtCsl6byvPIGh1l_3syn5parse5Parse5parses2_0Bb_
FNDA:0,_RNCNvXs1_NtNtCse2DPM0D9GBn_14actix_failwrap11macro_input11proof_routeNtB7_14ProofRouteBodyNtNtCsl6byvPIGh1l_3syn5parse5Parse5parses_0Bb_
FNDA:0,_RNCNvXs_NtNtCse2DPM0D9GBn_14actix_failwrap11macro_input11proof_routeNtB6_14ProofRouteMetaNtNtCsl6byvPIGh1l_3syn5parse5Parse5parse0Ba_
FNDA:0,_RNCNvXs_NtNtCse2DPM0D9GBn_14actix_failwrap11macro_input11proof_routeNtB6_14ProofRouteMetaNtNtCsl6byvPIGh1l_3syn5parse5Parse5parses_0Ba_
FNDA:0,_RNvMNtNtCse2DPM0D9GBn_14actix_failwrap11macro_input11proof_routeNtB2_14ProofRouteMeta4path
FNDA:0,_RNvMNtNtCse2DPM0D9GBn_14actix_failwrap11macro_input11proof_routeNtB2_14ProofRouteMeta6method
FNDA:0,_RNvMs0_NtNtCse2DPM0D9GBn_14actix_failwrap11macro_input11proof_routeNtB5_14ProofRouteBody10parameters
FNDA:0,_RNvMs0_NtNtCse2DPM0D9GBn_14actix_failwrap11macro_input11proof_routeNtB5_14ProofRouteBody12return_error
FNDA:0,_RNvMs0_NtNtCse2DPM0D9GBn_14actix_failwrap11macro_input11proof_routeNtB5_14ProofRouteBody4name
FNDA:0,_RNvMs0_NtNtCse2DPM0D9GBn_14actix_failwrap11macro_input11proof_routeNtB5_14ProofRouteBody8function
FNDA:0,_RNvMs2_NtNtCse2DPM0D9GBn_14actix_failwrap11macro_input11proof_routeNtB5_19ProofRouteParameter14error_override
FNDA:0,_RNvMs2_NtNtCse2DPM0D9GBn_14actix_failwrap11macro_input11proof_routeNtB5_19ProofRouteParameter2ty
FNDA:0,_RNvXs1_NtNtCse2DPM0D9GBn_14actix_failwrap11macro_input11proof_routeNtB5_14ProofRouteBodyNtNtCsl6byvPIGh1l_3syn5parse5Parse5parse
FNDA:0,_RNvXs_NtNtCse2DPM0D9GBn_14actix_failwrap11macro_input11proof_routeNtB4_14ProofRouteMetaNtNtCsl6byvPIGh1l_3syn5parse5Parse5parse
FNDA:0,_RNCNCNvXs1_NtNtCs1KVIBsp6OTI_14actix_failwrap11macro_input11proof_routeNtB9_14ProofRouteBodyNtNtCsl6byvPIGh1l_3syn5parse5Parse5parse00Bd_
FNDA:2,_RNCNCNvXs1_NtNtCs1KVIBsp6OTI_14actix_failwrap11macro_input11proof_routeNtB9_14ProofRouteBodyNtNtCsl6byvPIGh1l_3syn5parse5Parse5parses1_00Bd_
FNDA:0,_RNCNCNvXs1_NtNtCs1KVIBsp6OTI_14actix_failwrap11macro_input11proof_routeNtB9_14ProofRouteBodyNtNtCsl6byvPIGh1l_3syn5parse5Parse5parses1_0s0_0Bd_
FNDA:2,_RNCNCNvXs1_NtNtCs1KVIBsp6OTI_14actix_failwrap11macro_input11proof_routeNtB9_14ProofRouteBodyNtNtCsl6byvPIGh1l_3syn5parse5Parse5parses1_0s_0Bd_
FNDA:0,_RNCNvXs1_NtNtCs1KVIBsp6OTI_14actix_failwrap11macro_input11proof_routeNtB7_14ProofRouteBodyNtNtCsl6byvPIGh1l_3syn5parse5Parse5parse0Bb_
FNDA:4,_RNCNvXs1_NtNtCs1KVIBsp6OTI_14actix_failwrap11macro_input11proof_routeNtB7_14ProofRouteBodyNtNtCsl6byvPIGh1l_3syn5parse5Parse5parses0_0Bb_
FNDA:4,_RNCNvXs1_NtNtCs1KVIBsp6OTI_14actix_failwrap11macro_input11proof_routeNtB7_14ProofRouteBodyNtNtCsl6byvPIGh1l_3syn5parse5Parse5parses1_0Bb_
FNDA:2,_RNCNvXs1_NtNtCs1KVIBsp6OTI_14actix_failwrap11macro_input11proof_routeNtB7_14ProofRouteBodyNtNtCsl6byvPIGh1l_3syn5parse5Parse5parses2_0Bb_
FNDA:4,_RNCNvXs1_NtNtCs1KVIBsp6OTI_14actix_failwrap11macro_input11proof_routeNtB7_14ProofRouteBodyNtNtCsl6byvPIGh1l_3syn5parse5Parse5parses_0Bb_
FNDA:4,_RNCNvXs_NtNtCs1KVIBsp6OTI_14actix_failwrap11macro_input11proof_routeNtB6_14ProofRouteMetaNtNtCsl6byvPIGh1l_3syn5parse5Parse5parse0Ba_
FNDA:4,_RNCNvXs_NtNtCs1KVIBsp6OTI_14actix_failwrap11macro_input11proof_routeNtB6_14ProofRouteMetaNtNtCsl6byvPIGh1l_3syn5parse5Parse5parses_0Ba_
FNDA:4,_RNvMNtNtCs1KVIBsp6OTI_14actix_failwrap11macro_input11proof_routeNtB2_14ProofRouteMeta4path
FNDA:4,_RNvMNtNtCs1KVIBsp6OTI_14actix_failwrap11macro_input11proof_routeNtB2_14ProofRouteMeta6method
FNDA:4,_RNvMs0_NtNtCs1KVIBsp6OTI_14actix_failwrap11macro_input11proof_routeNtB5_14ProofRouteBody10parameters
FNDA:4,_RNvMs0_NtNtCs1KVIBsp6OTI_14actix_failwrap11macro_input11proof_routeNtB5_14ProofRouteBody12return_error
FNDA:4,_RNvMs0_NtNtCs1KVIBsp6OTI_14actix_failwrap11macro_input11proof_routeNtB5_14ProofRouteBody4name
FNDA:4,_RNvMs0_NtNtCs1KVIBsp6OTI_14actix_failwrap11macro_input11proof_routeNtB5_14ProofRouteBody8function
FNDA:4,_RNvMs2_NtNtCs1KVIBsp6OTI_14actix_failwrap11macro_input11proof_routeNtB5_19ProofRouteParameter14error_override
FNDA:4,_RNvMs2_NtNtCs1KVIBsp6OTI_14actix_failwrap11macro_input11proof_routeNtB5_19ProofRouteParameter2ty
FNDA:4,_RNvXs1_NtNtCs1KVIBsp6OTI_14actix_failwrap11macro_input11proof_routeNtB5_14ProofRouteBodyNtNtCsl6byvPIGh1l_3syn5parse5Parse5parse
FNDA:4,_RNvXs_NtNtCs1KVIBsp6OTI_14actix_failwrap11macro_input11proof_routeNtB4_14ProofRouteMetaNtNtCsl6byvPIGh1l_3syn5parse5Parse5parse
FNF:21
FNH:18
DA:39,4
DA:40,4
DA:41,4
DA:44,4
DA:45,4
DA:46,4
DA:50,4
DA:51,4
DA:53,4
DA:54,4
DA:55,4
DA:56,4
DA:58,0
DA:59,0
DA:60,0
DA:61,0
DA:62,0
DA:63,0
DA:64,0
DA:67,4
DA:68,4
DA:69,4
DA:71,0
DA:72,0
DA:73,0
DA:74,0
DA:75,0
DA:76,0
DA:77,0
DA:78,4
DA:80,4
DA:81,4
DA:86,4
DA:87,4
DA:88,4
DA:91,4
DA:92,4
DA:93,4
DA:96,4
DA:97,4
DA:98,4
DA:101,4
DA:102,4
DA:103,4
DA:107,4
DA:108,4
DA:110,4
DA:111,4
DA:112,4
DA:113,4
DA:115,4
DA:116,4
DA:117,4
DA:118,4
DA:119,0
DA:120,0
DA:121,0
DA:122,0
DA:123,0
DA:124,0
DA:125,0
DA:126,0
DA:128,0
DA:129,0
DA:130,0
DA:131,0
DA:132,4
DA:134,4
DA:135,4
DA:136,4
DA:140,0
DA:141,0
DA:142,0
DA:143,0
DA:144,0
DA:148,4
DA:151,4
DA:152,0
DA:153,0
DA:154,0
DA:155,0
DA:156,0
DA:157,0
DA:158,0
DA:164,4
DA:165,4
DA:166,4
DA:167,4
DA:168,4
DA:170,0
DA:171,0
DA:172,0
DA:173,0
DA:176,4
DA:178,4
DA:180,4
DA:181,4
DA:182,4
DA:183,4
DA:185,0
DA:186,0
DA:187,0
DA:188,0
DA:189,4
DA:192,4
DA:194,0
DA:195,0
DA:200,4
DA:201,4
DA:203,4
DA:204,4
DA:205,4
DA:207,0
DA:208,0
DA:209,0
DA:210,0
DA:211,0
DA:212,0
DA:213,0
DA:214,4
DA:217,4
DA:222,0
DA:223,0
DA:224,0
DA:225,0
DA:226,0
DA:227,0
DA:228,0
DA:234,0
DA:235,0
DA:236,0
DA:237,0
DA:238,0
DA:239,0
DA:240,0
DA:244,0
DA:245,0
DA:246,0
DA:247,0
DA:248,0
DA:249,0
DA:250,0
DA:251,0
DA:252,0
DA:258,4
DA:259,4
DA:260,4
DA:261,4
DA:262,4
DA:263,0
DA:264,4
DA:265,4
DA:266,4
DA:268,4
DA:269,4
DA:270,4
DA:271,4
DA:272,2
DA:273,2
DA:274,2
DA:275,2
DA:276,4
DA:277,4
DA:278,4
DA:279,0
DA:280,0
DA:281,0
DA:283,0
DA:284,4
DA:286,4
DA:287,4
DA:289,4
DA:290,4
DA:291,4
DA:292,4
DA:294,4
DA:295,4
DA:296,4
DA:297,4
DA:298,2
DA:299,2
DA:300,2
DA:301,2
DA:302,0
DA:305,4
DA:306,4
DA:311,4
DA:312,4
DA:313,4
DA:314,4
DA:317,4
DA:318,4
DA:319,4
BRF:0
BRH:0
LF:205
LH:117
end_of_record
SF:/home/memw/Documents/Development/flaky/actix_failwrap/src/macro_output/error_response.rs
FN:29,_RNCNvNtNtCse2DPM0D9GBn_14actix_failwrap12macro_output14error_response21error_response_output0B7_
FN:7,_RNvNtNtCse2DPM0D9GBn_14actix_failwrap12macro_output14error_response18variant_match_head
FN:23,_RNvNtNtCse2DPM0D9GBn_14actix_failwrap12macro_output14error_response21error_response_output
FN:7,_RNvNtNtCs1KVIBsp6OTI_14actix_failwrap12macro_output14error_response18variant_match_head
FN:23,_RNvNtNtCs1KVIBsp6OTI_14actix_failwrap12macro_output14error_response21error_response_output
FN:29,_RNCNvNtNtCs1KVIBsp6OTI_14actix_failwrap12macro_output14error_response21error_response_output0B7_
FNDA:0,_RNCNvNtNtCse2DPM0D9GBn_14actix_failwrap12macro_output14error_response21error_response_output0B7_
FNDA:0,_RNvNtNtCse2DPM0D9GBn_14actix_failwrap12macro_output14error_response18variant_match_head
FNDA:0,_RNvNtNtCse2DPM0D9GBn_14actix_failwrap12macro_output14error_response21error_response_output
FNDA:8,_RNvNtNtCs1KVIBsp6OTI_14actix_failwrap12macro_output14error_response18variant_match_head
FNDA:4,_RNvNtNtCs1KVIBsp6OTI_14actix_failwrap12macro_output14error_response21error_response_output
FNDA:8,_RNCNvNtNtCs1KVIBsp6OTI_14actix_failwrap12macro_output14error_response21error_response_output0B7_
FNF:3
FNH:3
DA:7,8
DA:8,8
DA:9,8
DA:10,8
DA:11,8
DA:12,8
DA:13,8
DA:15,1
DA:16,1
DA:17,6
DA:20,8
DA:21,8
DA:23,4
DA:24,4
DA:26,4
DA:27,4
DA:28,4
DA:29,8
DA:30,8
DA:31,8
DA:32,8
DA:34,8
DA:36,8
DA:37,8
DA:41,8
DA:43,1
DA:51,7
DA:57,8
DA:58,8
DA:59,8
DA:60,8
DA:62,8
DA:63,8
DA:64,4
DA:66,4
DA:83,4
BRF:0
BRH:0
LF:37
LH:37
end_of_record
SF:/home/memw/Documents/Development/flaky/actix_failwrap/src/macro_output/proof_route.rs
FN:22,_RNCNvNtNtCse2DPM0D9GBn_14actix_failwrap12macro_output11proof_route18proof_route_output0B7_
FN:45,_RNCNvNtNtCse2DPM0D9GBn_14actix_failwrap12macro_output11proof_route18proof_route_outputs_0B7_
FN:6,_RNvNtNtCse2DPM0D9GBn_14actix_failwrap12macro_output11proof_route18proof_route_output
FN:6,_RNvNtNtCs1KVIBsp6OTI_14actix_failwrap12macro_output11proof_route18proof_route_output
FN:22,_RNCNvNtNtCs1KVIBsp6OTI_14actix_failwrap12macro_output11proof_route18proof_route_output0B7_
FN:45,_RNCNvNtNtCs1KVIBsp6OTI_14actix_failwrap12macro_output11proof_route18proof_route_outputs_0B7_
FNDA:0,_RNCNvNtNtCse2DPM0D9GBn_14actix_failwrap12macro_output11proof_route18proof_route_output0B7_
FNDA:0,_RNCNvNtNtCse2DPM0D9GBn_14actix_failwrap12macro_output11proof_route18proof_route_outputs_0B7_
FNDA:0,_RNvNtNtCse2DPM0D9GBn_14actix_failwrap12macro_output11proof_route18proof_route_output
FNDA:4,_RNvNtNtCs1KVIBsp6OTI_14actix_failwrap12macro_output11proof_route18proof_route_output
FNDA:4,_RNCNvNtNtCs1KVIBsp6OTI_14actix_failwrap12macro_output11proof_route18proof_route_output0B7_
FNDA:4,_RNCNvNtNtCs1KVIBsp6OTI_14actix_failwrap12macro_output11proof_route18proof_route_outputs_0B7_
FNF:3
FNH:3
DA:6,4
DA:7,4
DA:8,4
DA:9,4
DA:10,4
DA:12,4
DA:14,4
DA:15,4
DA:16,4
DA:18,4
DA:19,4
DA:20,4
DA:21,4
DA:22,4
DA:23,4
DA:24,4
DA:25,4
DA:26,2
DA:31,2
DA:34,4
DA:42,4
DA:43,4
DA:45,4
DA:47,4
DA:68,4
BRF:0
BRH:0
LF:27
LH:27
end_of_record
